target datalayout = "e-m:e-p270:32:32-p271:32:32-p272:64:64-i64:64-i128:128-f80:128-n8:16:32:64-S128"
target triple = "x86_64-pc-linux-gnu"

@.str.18 = private unnamed_addr constant [30 x i8] c"../openssl/test/threadstest.c\00", align 1
@multidefault_run = internal global i32 0, align 4
@.str.43 = private unnamed_addr constant [31 x i8] c"multi default test already run\00", align 1
@default_provider = internal global [2 x ptr] [ptr @.str.54, ptr null], align 16
@.str.54 = private unnamed_addr constant [8 x i8] c"default\00", align 1
@.str.118 = private unnamed_addr constant [33 x i8] c"Running multi default test first\00", align 1
@.str.119 = private unnamed_addr constant [7 x i8] c"legacy\00", align 1
@.str.120 = private unnamed_addr constant [65 x i8] c"Cannot load legacy provider - assuming this is a no-legacy build\00", align 1
@multi_load_provider = internal global ptr @.str.119, align 8

; Function Attrs: nounwind uwtable
define internal i32 @test_multi_default() #0 {
  %1 = alloca i32, align 4
  %2 = load i32, ptr @multidefault_run, align 4, !tbaa !4
  %3 = icmp ne i32 %2, 0
  br i1 %3, label %4, label %6

4:                                                ; preds = %0
  %5 = call i32 (ptr, i32, ptr, ...) @test_skip(ptr noundef @.str.18, i32 noundef 1105, ptr noundef @.str.43)
  store i32 1, ptr %1, align 4
  br label %8

6:                                                ; preds = %0
  store i32 1, ptr @multidefault_run, align 4, !tbaa !4
  %7 = call i32 @thread_run_test(ptr noundef @thread_multi_simple_fetch, i64 noundef 2, ptr noundef @thread_multi_simple_fetch, i32 noundef 0, ptr noundef @default_provider)
  store i32 %7, ptr %1, align 4
  br label %8

8:                                                ; preds = %6, %4
  %9 = load i32, ptr %1, align 4
  ret i32 %9
}

; Function Attrs: nounwind uwtable
define internal i32 @test_multi_load() #0 {
  %1 = alloca i32, align 4
  %2 = alloca ptr, align 8
  call void @llvm.lifetime.start.p0(i64 4, ptr %1) #10
  store i32 1, ptr %1, align 4, !tbaa !4
  call void @llvm.lifetime.start.p0(i64 8, ptr %2) #10
  %3 = load i32, ptr @multidefault_run, align 4, !tbaa !4
  %4 = icmp ne i32 %3, 0
  br i1 %4, label %7, label %5

5:                                                ; preds = %0
  call void (ptr, i32, ptr, ...) @test_info(ptr noundef @.str.18, i32 noundef 1121, ptr noundef @.str.118)
  %6 = call i32 @test_multi_default()
  store i32 %6, ptr %1, align 4, !tbaa !4
  br label %7

7:                                                ; preds = %5, %0
  %8 = call ptr @OSSL_PROVIDER_load(ptr noundef null, ptr noundef @.str.119)
  store ptr %8, ptr %2, align 8, !tbaa !16
  %9 = load ptr, ptr %2, align 8, !tbaa !16
  %10 = icmp eq ptr %9, null
  br i1 %10, label %11, label %12

11:                                               ; preds = %7
  call void (ptr, i32, ptr, ...) @test_info(ptr noundef @.str.18, i32 noundef 1133, ptr noundef @.str.120)
  store ptr @.str.54, ptr @multi_load_provider, align 8, !tbaa !8
  br label %12

12:                                               ; preds = %11, %7
  %13 = load ptr, ptr %2, align 8, !tbaa !16
  %14 = call i32 @OSSL_PROVIDER_unload(ptr noundef %13)
  %15 = call i32 @thread_run_test(ptr noundef null, i64 noundef 10, ptr noundef @test_multi_load_worker, i32 noundef 0, ptr noundef null)
  %16 = icmp ne i32 %15, 0
  br i1 %16, label %17, label %20

17:                                               ; preds = %12
  %18 = load i32, ptr %1, align 4, !tbaa !4
  %19 = icmp ne i32 %18, 0
  br label %20

20:                                               ; preds = %17, %12
  %21 = phi i1 [ false, %12 ], [ %19, %17 ]
  %22 = zext i1 %21 to i32
  call void @llvm.lifetime.end.p0(i64 8, ptr %2) #10
  call void @llvm.lifetime.end.p0(i64 4, ptr %1) #10
  ret i32 %22
}